target datalayout = "e-m:e-p270:32:32-p271:32:32-p272:64:64-i64:64-i128:128-f80:128-n8:16:32:64-S128"
target triple = "x86_64-pc-linux-gnu"

%"class.base::Time" = type { %"class.base::time_internal::TimeBase" }
%"class.base::time_internal::TimeBase" = type { i64 }
%"class.base::TimeDelta" = type { i64 }
%struct.stat64 = type { i64, i64, i64, i32, i32, i32, i32, i64, i64, i64, i64, %struct.timespec, %struct.timespec, %struct.timespec, [3 x i64] }
%struct.timespec = type { i64, i64 }
%"struct.base::File::Info" = type { i64, i8, i8, %"class.base::Time", %"class.base::Time", %"class.base::Time" }

; Function Attrs: mustprogress nounwind uwtable
define linkonce_odr void @_ZN4base13time_internal8TimeBaseINS_4TimeEEC2El(ptr noundef nonnull align 8 dereferenceable(8) %0, i64 noundef %1) unnamed_addr #4 comdat align 2 {
  %3 = alloca ptr, align 8
  %4 = alloca i64, align 8
  store ptr %0, ptr %3, align 8, !tbaa !30
  store i64 %1, ptr %4, align 8, !tbaa !24
  %5 = load ptr, ptr %3, align 8
  %6 = getelementptr inbounds nuw %"class.base::time_internal::TimeBase", ptr %5, i32 0, i32 0
  %7 = load i64, ptr %4, align 8, !tbaa !24
  store i64 %7, ptr %6, align 8, !tbaa !33
  ret void
}

; Function Attrs: mustprogress uwtable
define linkonce_odr void @_ZN4base4TimeC2El(ptr noundef nonnull align 8 dereferenceable(8) %0, i64 noundef %1) unnamed_addr #0 comdat align 2 {
  %3 = alloca ptr, align 8
  %4 = alloca i64, align 8
  store ptr %0, ptr %3, align 8, !tbaa !110
  store i64 %1, ptr %4, align 8, !tbaa !24
  %5 = load ptr, ptr %3, align 8
  %6 = load i64, ptr %4, align 8, !tbaa !24
  call void @_ZN4base13time_internal8TimeBaseINS_4TimeEEC2El(ptr noundef nonnull align 8 dereferenceable(8) %5, i64 noundef %6)
  ret void
}

; Function Attrs: mustprogress nounwind uwtable
define linkonce_odr void @_ZN4base9TimeDeltaC2El(ptr noundef nonnull align 8 dereferenceable(8) %0, i64 noundef %1) unnamed_addr #4 comdat align 2 {
  %3 = alloca ptr, align 8
  %4 = alloca i64, align 8
  store ptr %0, ptr %3, align 8, !tbaa !101
  store i64 %1, ptr %4, align 8, !tbaa !24
  %5 = load ptr, ptr %3, align 8
  %6 = getelementptr inbounds nuw %"class.base::TimeDelta", ptr %5, i32 0, i32 0
  %7 = load i64, ptr %4, align 8, !tbaa !24
  store i64 %7, ptr %6, align 8, !tbaa !103
  ret void
}

; Function Attrs: mustprogress uwtable
define linkonce_odr i64 @_ZNK4base13time_internal8TimeBaseINS_4TimeEEplENS_9TimeDeltaE(ptr noundef nonnull align 8 dereferenceable(8) %0, i64 %1) #0 comdat align 2 {
  %3 = alloca %"class.base::Time", align 8
  %4 = alloca %"class.base::TimeDelta", align 8
  %5 = alloca ptr, align 8
  %6 = alloca %"class.base::TimeDelta", align 8
  %7 = getelementptr inbounds nuw %"class.base::TimeDelta", ptr %4, i32 0, i32 0
  store i64 %1, ptr %7, align 8
  store ptr %0, ptr %5, align 8, !tbaa !30
  %8 = load ptr, ptr %5, align 8
  call void @llvm.memcpy.p0.p0.i64(ptr align 8 %6, ptr align 8 %4, i64 8, i1 false), !tbaa.struct !32
  %9 = getelementptr inbounds nuw %"class.base::time_internal::TimeBase", ptr %8, i32 0, i32 0
  %10 = load i64, ptr %9, align 8, !tbaa !33
  %11 = getelementptr inbounds nuw %"class.base::TimeDelta", ptr %6, i32 0, i32 0
  %12 = load i64, ptr %11, align 8
  %13 = call noundef i64 @_ZN4base13time_internal12SaturatedAddENS_9TimeDeltaEl(i64 %12, i64 noundef %10)
  call void @_ZN4base4TimeC2El(ptr noundef nonnull align 8 dereferenceable(8) %3, i64 noundef %13)
  %14 = getelementptr inbounds nuw %"class.base::Time", ptr %3, i32 0, i32 0
  %15 = getelementptr inbounds nuw %"class.base::time_internal::TimeBase", ptr %14, i32 0, i32 0
  %16 = load i64, ptr %15, align 8
  ret i64 %16
}

; Function Attrs: mustprogress uwtable
define linkonce_odr i64 @_ZN4base9TimeDelta16FromMicrosecondsEl(i64 noundef %0) #0 comdat align 2 {
  %2 = alloca %"class.base::TimeDelta", align 8
  %3 = alloca i64, align 8
  store i64 %0, ptr %3, align 8, !tbaa !24
  %4 = load i64, ptr %3, align 8, !tbaa !24
  call void @_ZN4base9TimeDeltaC2El(ptr noundef nonnull align 8 dereferenceable(8) %2, i64 noundef %4)
  %5 = getelementptr inbounds nuw %"class.base::TimeDelta", ptr %2, i32 0, i32 0
  %6 = load i64, ptr %5, align 8
  ret i64 %6
}

; Function Attrs: mustprogress uwtable
define void @_ZN4base4File4Info8FromStatERK6stat64(ptr noundef nonnull align 8 dereferenceable(40) %0, ptr noundef nonnull align 8 dereferenceable(144) %1) #0 align 2 {
  %3 = alloca ptr, align 8
  %4 = alloca ptr, align 8
  %5 = alloca i64, align 8
  %6 = alloca i64, align 8
  %7 = alloca i64, align 8
  %8 = alloca i64, align 8
  %9 = alloca i64, align 8
  %10 = alloca i64, align 8
  %11 = alloca %"class.base::Time", align 8
  %12 = alloca %"class.base::Time", align 8
  %13 = alloca %"class.base::TimeDelta", align 8
  %14 = alloca %"class.base::Time", align 8
  %15 = alloca %"class.base::Time", align 8
  %16 = alloca %"class.base::TimeDelta", align 8
  %17 = alloca %"class.base::Time", align 8
  %18 = alloca %"class.base::Time", align 8
  %19 = alloca %"class.base::TimeDelta", align 8
  store ptr %0, ptr %3, align 8, !tbaa !3
  store ptr %1, ptr %4, align 8, !tbaa !8
  %20 = load ptr, ptr %3, align 8
  %21 = load ptr, ptr %4, align 8, !tbaa !8
  %22 = getelementptr inbounds nuw %struct.stat64, ptr %21, i32 0, i32 3
  %23 = load i32, ptr %22, align 8, !tbaa !10
  %24 = and i32 %23, 61440
  %25 = icmp eq i32 %24, 16384
  %26 = getelementptr inbounds nuw %"struct.base::File::Info", ptr %20, i32 0, i32 1
  %27 = zext i1 %25 to i8
  store i8 %27, ptr %26, align 8, !tbaa !15
  %28 = load ptr, ptr %4, align 8, !tbaa !8
  %29 = getelementptr inbounds nuw %struct.stat64, ptr %28, i32 0, i32 3
  %30 = load i32, ptr %29, align 8, !tbaa !10
  %31 = and i32 %30, 61440
  %32 = icmp eq i32 %31, 40960
  %33 = getelementptr inbounds nuw %"struct.base::File::Info", ptr %20, i32 0, i32 2
  %34 = zext i1 %32 to i8
  store i8 %34, ptr %33, align 1, !tbaa !20
  %35 = load ptr, ptr %4, align 8, !tbaa !8
  %36 = getelementptr inbounds nuw %struct.stat64, ptr %35, i32 0, i32 8
  %37 = load i64, ptr %36, align 8, !tbaa !21
  %38 = getelementptr inbounds nuw %"struct.base::File::Info", ptr %20, i32 0, i32 0
  store i64 %37, ptr %38, align 8, !tbaa !22
  call void @llvm.lifetime.start.p0(i64 8, ptr %5) #14
  %39 = load ptr, ptr %4, align 8, !tbaa !8
  %40 = getelementptr inbounds nuw %struct.stat64, ptr %39, i32 0, i32 12
  %41 = getelementptr inbounds nuw %struct.timespec, ptr %40, i32 0, i32 0
  %42 = load i64, ptr %41, align 8, !tbaa !23
  store i64 %42, ptr %5, align 8, !tbaa !24
  call void @llvm.lifetime.start.p0(i64 8, ptr %6) #14
  %43 = load ptr, ptr %4, align 8, !tbaa !8
  %44 = getelementptr inbounds nuw %struct.stat64, ptr %43, i32 0, i32 12
  %45 = getelementptr inbounds nuw %struct.timespec, ptr %44, i32 0, i32 1
  %46 = load i64, ptr %45, align 8, !tbaa !25
  store i64 %46, ptr %6, align 8, !tbaa !24
  call void @llvm.lifetime.start.p0(i64 8, ptr %7) #14
  %47 = load ptr, ptr %4, align 8, !tbaa !8
  %48 = getelementptr inbounds nuw %struct.stat64, ptr %47, i32 0, i32 11
  %49 = getelementptr inbounds nuw %struct.timespec, ptr %48, i32 0, i32 0
  %50 = load i64, ptr %49, align 8, !tbaa !26
  store i64 %50, ptr %7, align 8, !tbaa !24
  call void @llvm.lifetime.start.p0(i64 8, ptr %8) #14
  %51 = load ptr, ptr %4, align 8, !tbaa !8
  %52 = getelementptr inbounds nuw %struct.stat64, ptr %51, i32 0, i32 11
  %53 = getelementptr inbounds nuw %struct.timespec, ptr %52, i32 0, i32 1
  %54 = load i64, ptr %53, align 8, !tbaa !27
  store i64 %54, ptr %8, align 8, !tbaa !24
  call void @llvm.lifetime.start.p0(i64 8, ptr %9) #14
  %55 = load ptr, ptr %4, align 8, !tbaa !8
  %56 = getelementptr inbounds nuw %struct.stat64, ptr %55, i32 0, i32 13
  %57 = getelementptr inbounds nuw %struct.timespec, ptr %56, i32 0, i32 0
  %58 = load i64, ptr %57, align 8, !tbaa !28
  store i64 %58, ptr %9, align 8, !tbaa !24
  call void @llvm.lifetime.start.p0(i64 8, ptr %10) #14
  %59 = load ptr, ptr %4, align 8, !tbaa !8
  %60 = getelementptr inbounds nuw %struct.stat64, ptr %59, i32 0, i32 13
  %61 = getelementptr inbounds nuw %struct.timespec, ptr %60, i32 0, i32 1
  %62 = load i64, ptr %61, align 8, !tbaa !29
  store i64 %62, ptr %10, align 8, !tbaa !24
  call void @llvm.lifetime.start.p0(i64 8, ptr %11) #14
  call void @llvm.lifetime.start.p0(i64 8, ptr %12) #14
  %63 = load i64, ptr %5, align 8, !tbaa !24
  %64 = call i64 @_ZN4base4Time9FromTimeTEl(i64 noundef %63)
  %65 = getelementptr inbounds nuw %"class.base::Time", ptr %12, i32 0, i32 0
  %66 = getelementptr inbounds nuw %"class.base::time_internal::TimeBase", ptr %65, i32 0, i32 0
  store i64 %64, ptr %66, align 8
  %67 = load i64, ptr %6, align 8, !tbaa !24
  %68 = sdiv i64 %67, 1000
  %69 = call i64 @_ZN4base9TimeDelta16FromMicrosecondsEl(i64 noundef %68)
  %70 = getelementptr inbounds nuw %"class.base::TimeDelta", ptr %13, i32 0, i32 0
  store i64 %69, ptr %70, align 8
  %71 = getelementptr inbounds nuw %"class.base::TimeDelta", ptr %13, i32 0, i32 0
  %72 = load i64, ptr %71, align 8
  %73 = call i64 @_ZNK4base13time_internal8TimeBaseINS_4TimeEEplENS_9TimeDeltaE(ptr noundef nonnull align 8 dereferenceable(8) %12, i64 %72)
  %74 = getelementptr inbounds nuw %"class.base::Time", ptr %11, i32 0, i32 0
  %75 = getelementptr inbounds nuw %"class.base::time_internal::TimeBase", ptr %74, i32 0, i32 0
  store i64 %73, ptr %75, align 8
  %76 = getelementptr inbounds nuw %"struct.base::File::Info", ptr %20, i32 0, i32 3
  call void @llvm.memcpy.p0.p0.i64(ptr align 8 %76, ptr align 8 %11, i64 8, i1 false)
  call void @llvm.lifetime.end.p0(i64 8, ptr %12) #14
  call void @llvm.lifetime.end.p0(i64 8, ptr %11) #14
  call void @llvm.lifetime.start.p0(i64 8, ptr %14) #14
  call void @llvm.lifetime.start.p0(i64 8, ptr %15) #14
  %77 = load i64, ptr %7, align 8, !tbaa !24
  %78 = call i64 @_ZN4base4Time9FromTimeTEl(i64 noundef %77)
  %79 = getelementptr inbounds nuw %"class.base::Time", ptr %15, i32 0, i32 0
  %80 = getelementptr inbounds nuw %"class.base::time_internal::TimeBase", ptr %79, i32 0, i32 0
  store i64 %78, ptr %80, align 8
  %81 = load i64, ptr %8, align 8, !tbaa !24
  %82 = sdiv i64 %81, 1000
  %83 = call i64 @_ZN4base9TimeDelta16FromMicrosecondsEl(i64 noundef %82)
  %84 = getelementptr inbounds nuw %"class.base::TimeDelta", ptr %16, i32 0, i32 0
  store i64 %83, ptr %84, align 8
  %85 = getelementptr inbounds nuw %"class.base::TimeDelta", ptr %16, i32 0, i32 0
  %86 = load i64, ptr %85, align 8
  %87 = call i64 @_ZNK4base13time_internal8TimeBaseINS_4TimeEEplENS_9TimeDeltaE(ptr noundef nonnull align 8 dereferenceable(8) %15, i64 %86)
  %88 = getelementptr inbounds nuw %"class.base::Time", ptr %14, i32 0, i32 0
  %89 = getelementptr inbounds nuw %"class.base::time_internal::TimeBase", ptr %88, i32 0, i32 0
  store i64 %87, ptr %89, align 8
  %90 = getelementptr inbounds nuw %"struct.base::File::Info", ptr %20, i32 0, i32 4
  call void @llvm.memcpy.p0.p0.i64(ptr align 8 %90, ptr align 8 %14, i64 8, i1 false)
  call void @llvm.lifetime.end.p0(i64 8, ptr %15) #14
  call void @llvm.lifetime.end.p0(i64 8, ptr %14) #14
  call void @llvm.lifetime.start.p0(i64 8, ptr %17) #14
  call void @llvm.lifetime.start.p0(i64 8, ptr %18) #14
  %91 = load i64, ptr %9, align 8, !tbaa !24
  %92 = call i64 @_ZN4base4Time9FromTimeTEl(i64 noundef %91)
  %93 = getelementptr inbounds nuw %"class.base::Time", ptr %18, i32 0, i32 0
  %94 = getelementptr inbounds nuw %"class.base::time_internal::TimeBase", ptr %93, i32 0, i32 0
  store i64 %92, ptr %94, align 8
  %95 = load i64, ptr %10, align 8, !tbaa !24
  %96 = sdiv i64 %95, 1000
  %97 = call i64 @_ZN4base9TimeDelta16FromMicrosecondsEl(i64 noundef %96)
  %98 = getelementptr inbounds nuw %"class.base::TimeDelta", ptr %19, i32 0, i32 0
  store i64 %97, ptr %98, align 8
  %99 = getelementptr inbounds nuw %"class.base::TimeDelta", ptr %19, i32 0, i32 0
  %100 = load i64, ptr %99, align 8
  %101 = call i64 @_ZNK4base13time_internal8TimeBaseINS_4TimeEEplENS_9TimeDeltaE(ptr noundef nonnull align 8 dereferenceable(8) %18, i64 %100)
  %102 = getelementptr inbounds nuw %"class.base::Time", ptr %17, i32 0, i32 0
  %103 = getelementptr inbounds nuw %"class.base::time_internal::TimeBase", ptr %102, i32 0, i32 0
  store i64 %101, ptr %103, align 8
  %104 = getelementptr inbounds nuw %"struct.base::File::Info", ptr %20, i32 0, i32 5
  call void @llvm.memcpy.p0.p0.i64(ptr align 8 %104, ptr align 8 %17, i64 8, i1 false)
  call void @llvm.lifetime.end.p0(i64 8, ptr %18) #14
  call void @llvm.lifetime.end.p0(i64 8, ptr %17) #14
  call void @llvm.lifetime.end.p0(i64 8, ptr %10) #14
  call void @llvm.lifetime.end.p0(i64 8, ptr %9) #14
  call void @llvm.lifetime.end.p0(i64 8, ptr %8) #14
  call void @llvm.lifetime.end.p0(i64 8, ptr %7) #14
  call void @llvm.lifetime.end.p0(i64 8, ptr %6) #14
  call void @llvm.lifetime.end.p0(i64 8, ptr %5) #14
  ret void
}