; Function Attrs: mustprogress uwtable
define void @_ZN4base4File4Info8FromStatERK6stat64(ptr noundef nonnull writeonly align 8 captures(none) dereferenceable(40) initializes((0, 10), (16, 40)) %0, ptr noundef nonnull readonly align 8 captures(none) dereferenceable(144) %1) local_unnamed_addr #0 align 2 {
  %3 = getelementptr inbounds nuw i8, ptr %1, i64 24
  %4 = load i32, ptr %3, align 8, !tbaa !3
  %5 = and i32 %4, 61440
  %6 = icmp eq i32 %5, 16384
  %7 = getelementptr inbounds nuw i8, ptr %0, i64 8
  %8 = zext i1 %6 to i8
  store i8 %8, ptr %7, align 8, !tbaa !10
  %9 = icmp eq i32 %5, 40960
  %10 = getelementptr inbounds nuw i8, ptr %0, i64 9
  %11 = zext i1 %9 to i8
  store i8 %11, ptr %10, align 1, !tbaa !15
  %12 = getelementptr inbounds nuw i8, ptr %1, i64 48
  %13 = load i64, ptr %12, align 8, !tbaa !16
  store i64 %13, ptr %0, align 8, !tbaa !17
  %14 = getelementptr inbounds nuw i8, ptr %1, i64 88
  %15 = load i64, ptr %14, align 8, !tbaa !18
  %16 = getelementptr inbounds nuw i8, ptr %1, i64 96
  %17 = load i64, ptr %16, align 8, !tbaa !19
  %18 = getelementptr inbounds nuw i8, ptr %1, i64 72
  %19 = load i64, ptr %18, align 8, !tbaa !20
  %20 = getelementptr inbounds nuw i8, ptr %1, i64 80
  %21 = load i64, ptr %20, align 8, !tbaa !21
  %22 = getelementptr inbounds nuw i8, ptr %1, i64 104
  %23 = load i64, ptr %22, align 8, !tbaa !22
  %24 = getelementptr inbounds nuw i8, ptr %1, i64 112
  %25 = load i64, ptr %24, align 8, !tbaa !23
  %26 = tail call i64 @_ZN4base4Time9FromTimeTEl(i64 noundef %15)
  %27 = sdiv i64 %17, 1000
  %28 = tail call noundef i64 @_ZN4base13time_internal12SaturatedAddENS_9TimeDeltaEl(i64 %27, i64 noundef %26)
  %29 = getelementptr inbounds nuw i8, ptr %0, i64 16
  store i64 %28, ptr %29, align 8
  %30 = tail call i64 @_ZN4base4Time9FromTimeTEl(i64 noundef %19)
  %31 = sdiv i64 %21, 1000
  %32 = tail call noundef i64 @_ZN4base13time_internal12SaturatedAddENS_9TimeDeltaEl(i64 %31, i64 noundef %30)
  %33 = getelementptr inbounds nuw i8, ptr %0, i64 24
  store i64 %32, ptr %33, align 8
  %34 = tail call i64 @_ZN4base4Time9FromTimeTEl(i64 noundef %23)
  %35 = sdiv i64 %25, 1000
  %36 = tail call noundef i64 @_ZN4base13time_internal12SaturatedAddENS_9TimeDeltaEl(i64 %35, i64 noundef %34)
  %37 = getelementptr inbounds nuw i8, ptr %0, i64 32
  store i64 %36, ptr %37, align 8
  ret void
}